; Function Attrs: mustprogress uwtable
define dso_local noundef zeroext i1 @_ZNK12CVQualifiers14match_indirectERKS_(ptr nocapture noundef nonnull readonly align 8 dereferenceable(96) %0, ptr noundef nonnull align 8 dereferenceable(96) %1) local_unnamed_addr #4 align 2 personality ptr @__gxx_personality_v0 {
  %3 = alloca %class.CVQualifiers, align 8
  %4 = getelementptr inbounds i8, ptr %0, i64 8
  %5 = load i8, ptr %4, align 8
  %6 = and i8 %5, 1
  %.not = icmp eq i8 %6, 0
  br i1 %.not, label %7, label %_ZN12CVQualifiersD2Ev.exit

7:                                                ; preds = %2
  %8 = getelementptr inbounds i8, ptr %0, i64 16
  %9 = getelementptr inbounds i8, ptr %0, i64 32
  %10 = load ptr, ptr %9, align 8
  %11 = getelementptr inbounds i8, ptr %0, i64 40
  %12 = load i32, ptr %11, align 8
  %13 = load ptr, ptr %8, align 8
  %14 = ptrtoint ptr %10 to i64
  %15 = ptrtoint ptr %13 to i64
  %16 = sub i64 %14, %15
  %17 = shl nsw i64 %16, 3
  %18 = zext i32 %12 to i64
  %19 = add nsw i64 %17, %18
  %20 = getelementptr inbounds i8, ptr %1, i64 16
  %21 = getelementptr inbounds i8, ptr %1, i64 32
  %22 = load ptr, ptr %21, align 8
  %23 = getelementptr inbounds i8, ptr %1, i64 40
  %24 = load i32, ptr %23, align 8
  %25 = load ptr, ptr %20, align 8
  %26 = ptrtoint ptr %22 to i64
  %27 = ptrtoint ptr %25 to i64
  %28 = sub i64 %26, %27
  %29 = shl nsw i64 %28, 3
  %30 = zext i32 %24 to i64
  %31 = add nsw i64 %29, %30
  %32 = icmp eq i64 %19, %31
  br i1 %32, label %33, label %35

33:                                               ; preds = %7
  %34 = tail call noundef zeroext i1 @_ZNK12CVQualifiers5matchERKS_(ptr noundef nonnull align 8 dereferenceable(96) %0, ptr noundef nonnull align 8 dereferenceable(96) %1)
  br label %_ZN12CVQualifiersD2Ev.exit

35:                                               ; preds = %7
  %36 = sub i64 %31, %19
  %37 = trunc i64 %36 to i32
  %38 = icmp slt i32 %37, -1
  br i1 %38, label %_ZN12CVQualifiersD2Ev.exit, label %39

39:                                               ; preds = %35
  call void @_ZNK12CVQualifiers19indirect_qualifiersEi(ptr dead_on_unwind nonnull writable sret(%class.CVQualifiers) align 8 %3, ptr noundef nonnull align 8 dereferenceable(96) %1, i32 noundef %37)
  %40 = invoke noundef zeroext i1 @_ZNK12CVQualifiers5matchERKS_(ptr noundef nonnull align 8 dereferenceable(96) %0, ptr noundef nonnull align 8 dereferenceable(96) %3)
          to label %41 unwind label %64

41:                                               ; preds = %39
  store ptr getelementptr inbounds ({ [4 x ptr] }, ptr @_ZTV12CVQualifiers, i64 0, i32 0, i64 2), ptr %3, align 8
  %42 = getelementptr inbounds i8, ptr %3, i64 56
  %43 = load ptr, ptr %42, align 8
  %.not.i.i.i.i = icmp eq ptr %43, null
  br i1 %.not.i.i.i.i, label %_ZNSt6vectorIbSaIbEED2Ev.exit.i, label %44

44:                                               ; preds = %41
  %45 = getelementptr inbounds i8, ptr %3, i64 88
  %46 = load ptr, ptr %45, align 8
  %47 = ptrtoint ptr %46 to i64
  %48 = ptrtoint ptr %43 to i64
  %49 = sub i64 %47, %48
  %50 = ashr exact i64 %49, 3
  %51 = sub nsw i64 0, %50
  %52 = getelementptr inbounds i64, ptr %46, i64 %51
  call void @_ZdlPv(ptr noundef %52) #20
  store ptr null, ptr %42, align 8
  %.sroa.2.0..sroa_idx.i.i.i.i.i = getelementptr inbounds i8, ptr %3, i64 64
  store i32 0, ptr %.sroa.2.0..sroa_idx.i.i.i.i.i, align 8
  %.sroa.31.0..sroa_idx.i.i.i.i.i = getelementptr inbounds i8, ptr %3, i64 72
  store ptr null, ptr %.sroa.31.0..sroa_idx.i.i.i.i.i, align 8
  %.sroa.4.0..sroa_idx.i.i.i.i.i = getelementptr inbounds i8, ptr %3, i64 80
  store i32 0, ptr %.sroa.4.0..sroa_idx.i.i.i.i.i, align 8
  store ptr null, ptr %45, align 8
  br label %_ZNSt6vectorIbSaIbEED2Ev.exit.i

_ZNSt6vectorIbSaIbEED2Ev.exit.i:                  ; preds = %44, %41
  %53 = getelementptr inbounds i8, ptr %3, i64 16
  %54 = load ptr, ptr %53, align 8
  %.not.i.i.i1.i = icmp eq ptr %54, null
  br i1 %.not.i.i.i1.i, label %_ZN12CVQualifiersD2Ev.exit, label %55

55:                                               ; preds = %_ZNSt6vectorIbSaIbEED2Ev.exit.i
  %56 = getelementptr inbounds i8, ptr %3, i64 48
  %57 = load ptr, ptr %56, align 8
  %58 = ptrtoint ptr %57 to i64
  %59 = ptrtoint ptr %54 to i64
  %60 = sub i64 %58, %59
  %61 = ashr exact i64 %60, 3
  %62 = sub nsw i64 0, %61
  %63 = getelementptr inbounds i64, ptr %57, i64 %62
  call void @_ZdlPv(ptr noundef %63) #20
  br label %_ZN12CVQualifiersD2Ev.exit

64:                                               ; preds = %39
  %65 = landingpad { ptr, i32 }
          cleanup
  call void @_ZN12CVQualifiersD2Ev(ptr noundef nonnull align 8 dereferenceable(96) %3) #18
  resume { ptr, i32 } %65

_ZN12CVQualifiersD2Ev.exit:                       ; preds = %55, %_ZNSt6vectorIbSaIbEED2Ev.exit.i, %35, %2, %33
  %.0 = phi i1 [ %34, %33 ], [ true, %2 ], [ false, %35 ], [ %40, %_ZNSt6vectorIbSaIbEED2Ev.exit.i ], [ %40, %55 ]
  ret i1 %.0
}